; ModuleID = '27/104.c'
source_filename = "27/104.c"
target datalayout = "e-m:e-p270:32:32-p271:32:32-p272:64:64-i64:64-f80:128-n8:16:32:64-S128"
target triple = "x86_64-pc-linux-gnu"

@.str = private unnamed_addr constant [3 x i8] c"%d\00", align 1
@.str.1 = private unnamed_addr constant [12 x i8] c"%lf %lf %lf\00", align 1
@.str.2 = private unnamed_addr constant [19 x i8] c"x1=%.5lf;x2=%.5lf\0A\00", align 1
@.str.3 = private unnamed_addr constant [13 x i8] c"x1=x2=%.5lf\0A\00", align 1
@.str.4 = private unnamed_addr constant [33 x i8] c"x1=%.5lf+%.5lfi;x2=%.5lf-%.5lfi\0A\00", align 1

; Function Attrs: noinline nounwind uwtable
define dso_local i32 @main() #0 {
  %1 = alloca i32, align 4
  %2 = alloca i32, align 4
  %3 = alloca i32, align 4
  %4 = alloca double, align 8
  %5 = alloca double, align 8
  %6 = alloca double, align 8
  store i32 0, i32* %1, align 4
  %7 = call i32 (i8*, ...) @__isoc99_scanf(i8* getelementptr inbounds ([3 x i8], [3 x i8]* @.str, i64 0, i64 0), i32* %2)
  store i32 0, i32* %3, align 4
  br label %8

8:                                                ; preds = %110, %0
  %9 = load i32, i32* %3, align 4
  %10 = load i32, i32* %2, align 4
  %11 = icmp slt i32 %9, %10
  br i1 %11, label %12, label %113

12:                                               ; preds = %8
  %13 = call i32 (i8*, ...) @__isoc99_scanf(i8* getelementptr inbounds ([12 x i8], [12 x i8]* @.str.1, i64 0, i64 0), double* %4, double* %5, double* %6)
  %14 = load double, double* %5, align 8
  %15 = load double, double* %5, align 8
  %16 = fmul double %14, %15
  %17 = load double, double* %4, align 8
  %18 = fmul double 4.000000e+00, %17
  %19 = load double, double* %6, align 8
  %20 = fmul double %18, %19
  %21 = fsub double %16, %20
  %22 = fcmp ogt double %21, 0.000000e+00
  br i1 %22, label %23, label %55

23:                                               ; preds = %12
  %24 = load double, double* %5, align 8
  %25 = fneg double %24
  %26 = load double, double* %5, align 8
  %27 = load double, double* %5, align 8
  %28 = fmul double %26, %27
  %29 = load double, double* %4, align 8
  %30 = fmul double 4.000000e+00, %29
  %31 = load double, double* %6, align 8
  %32 = fmul double %30, %31
  %33 = fsub double %28, %32
  %34 = call double @sqrt(double %33) #3
  %35 = fadd double %25, %34
  %36 = load double, double* %4, align 8
  %37 = fmul double 2.000000e+00, %36
  %38 = fdiv double %35, %37
  %39 = load double, double* %5, align 8
  %40 = fneg double %39
  %41 = load double, double* %5, align 8
  %42 = load double, double* %5, align 8
  %43 = fmul double %41, %42
  %44 = load double, double* %4, align 8
  %45 = fmul double 4.000000e+00, %44
  %46 = load double, double* %6, align 8
  %47 = fmul double %45, %46
  %48 = fsub double %43, %47
  %49 = call double @sqrt(double %48) #3
  %50 = fsub double %40, %49
  %51 = load double, double* %4, align 8
  %52 = fmul double 2.000000e+00, %51
  %53 = fdiv double %50, %52
  %54 = call i32 (i8*, ...) @printf(i8* getelementptr inbounds ([19 x i8], [19 x i8]* @.str.2, i64 0, i64 0), double %38, double %53)
  br label %109

55:                                               ; preds = %12
  %56 = load double, double* %5, align 8
  %57 = load double, double* %5, align 8
  %58 = fmul double %56, %57
  %59 = load double, double* %4, align 8
  %60 = fmul double 4.000000e+00, %59
  %61 = load double, double* %6, align 8
  %62 = fmul double %60, %61
  %63 = fsub double %58, %62
  %64 = fcmp oeq double %63, 0.000000e+00
  br i1 %64, label %65, label %72

65:                                               ; preds = %55
  %66 = load double, double* %5, align 8
  %67 = fneg double %66
  %68 = load double, double* %4, align 8
  %69 = fmul double 2.000000e+00, %68
  %70 = fdiv double %67, %69
  %71 = call i32 (i8*, ...) @printf(i8* getelementptr inbounds ([13 x i8], [13 x i8]* @.str.3, i64 0, i64 0), double %70)
  br label %108

72:                                               ; preds = %55
  %73 = load double, double* %5, align 8
  %74 = fneg double %73
  %75 = load double, double* %4, align 8
  %76 = fmul double 2.000000e+00, %75
  %77 = fdiv double %74, %76
  %78 = load double, double* %4, align 8
  %79 = fmul double 4.000000e+00, %78
  %80 = load double, double* %6, align 8
  %81 = fmul double %79, %80
  %82 = load double, double* %5, align 8
  %83 = load double, double* %5, align 8
  %84 = fmul double %82, %83
  %85 = fsub double %81, %84
  %86 = call double @sqrt(double %85) #3
  %87 = load double, double* %4, align 8
  %88 = fmul double 2.000000e+00, %87
  %89 = fdiv double %86, %88
  %90 = load double, double* %5, align 8
  %91 = fneg double %90
  %92 = load double, double* %4, align 8
  %93 = fmul double 2.000000e+00, %92
  %94 = fdiv double %91, %93
  %95 = load double, double* %4, align 8
  %96 = fmul double 4.000000e+00, %95
  %97 = load double, double* %6, align 8
  %98 = fmul double %96, %97
  %99 = load double, double* %5, align 8
  %100 = load double, double* %5, align 8
  %101 = fmul double %99, %100
  %102 = fsub double %98, %101
  %103 = call double @sqrt(double %102) #3
  %104 = load double, double* %4, align 8
  %105 = fmul double 2.000000e+00, %104
  %106 = fdiv double %103, %105
  %107 = call i32 (i8*, ...) @printf(i8* getelementptr inbounds ([33 x i8], [33 x i8]* @.str.4, i64 0, i64 0), double %77, double %89, double %94, double %106)
  br label %108

108:                                              ; preds = %72, %65
  br label %109

109:                                              ; preds = %108, %23
  br label %110

110:                                              ; preds = %109
  %111 = load i32, i32* %3, align 4
  %112 = add nsw i32 %111, 1
  store i32 %112, i32* %3, align 4
  br label %8

113:                                              ; preds = %8
  ret i32 0
}

declare dso_local i32 @__isoc99_scanf(i8*, ...) #1

declare dso_local i32 @printf(i8*, ...) #1

; Function Attrs: nounwind
declare dso_local double @sqrt(double) #2


!llvm.module.flags = !{!0}
!llvm.ident = !{!1}

!0 = !{i32 1, !"wchar_size", i32 4}
!1 = !{!"clang version 10.0.0-4ubuntu1 "}
